#include <math.h>
#include <stdio.h>
#include <stdlib.h>
#include <string.h>

void main()
{
	int n,i,a[305],count=0,max,min;
	double ave=0;
	scanf("%d",&n);
	for(i=1;i<=n;i++)
	{
		scanf("%d",&a[i]);
		if(i==1)
		{
			max=a[1];
			min=a[1];
		}
		if(max<a[i])
		{
			max=a[i];
		}
		if(min>a[i])
		{
			min=a[i];
		}
		ave+=a[i];
	}
	ave/=n;
	if(ave-min>max-ave)
	{
		printf("%d",min);
	}
	else if(ave-min<max-ave)
	{
		printf("%d",max);
	}
	else
	{
		printf("%d,%d",min,max);
	}
}