; ModuleID = '21/1139.c'
source_filename = "21/1139.c"
target datalayout = "e-m:e-p270:32:32-p271:32:32-p272:64:64-i64:64-f80:128-n8:16:32:64-S128"
target triple = "x86_64-pc-linux-gnu"

@.str = private unnamed_addr constant [3 x i8] c"%d\00", align 1
@.str.1 = private unnamed_addr constant [6 x i8] c"%d,%d\00", align 1

; Function Attrs: noinline nounwind uwtable
define dso_local void @main() #0 {
  %1 = alloca i32, align 4
  %2 = alloca i32, align 4
  %3 = alloca [305 x i32], align 16
  %4 = alloca i32, align 4
  %5 = alloca i32, align 4
  %6 = alloca i32, align 4
  %7 = alloca double, align 8
  store i32 0, i32* %4, align 4
  store double 0.000000e+00, double* %7, align 8
  %8 = call i32 (i8*, ...) @__isoc99_scanf(i8* getelementptr inbounds ([3 x i8], [3 x i8]* @.str, i64 0, i64 0), i32* %1)
  store i32 1, i32* %2, align 4
  br label %9

9:                                                ; preds = %57, %0
  %10 = load i32, i32* %2, align 4
  %11 = load i32, i32* %1, align 4
  %12 = icmp sle i32 %10, %11
  br i1 %12, label %13, label %60

13:                                               ; preds = %9
  %14 = load i32, i32* %2, align 4
  %15 = sext i32 %14 to i64
  %16 = getelementptr inbounds [305 x i32], [305 x i32]* %3, i64 0, i64 %15
  %17 = call i32 (i8*, ...) @__isoc99_scanf(i8* getelementptr inbounds ([3 x i8], [3 x i8]* @.str, i64 0, i64 0), i32* %16)
  %18 = load i32, i32* %2, align 4
  %19 = icmp eq i32 %18, 1
  br i1 %19, label %20, label %25

20:                                               ; preds = %13
  %21 = getelementptr inbounds [305 x i32], [305 x i32]* %3, i64 0, i64 1
  %22 = load i32, i32* %21, align 4
  store i32 %22, i32* %5, align 4
  %23 = getelementptr inbounds [305 x i32], [305 x i32]* %3, i64 0, i64 1
  %24 = load i32, i32* %23, align 4
  store i32 %24, i32* %6, align 4
  br label %25

25:                                               ; preds = %20, %13
  %26 = load i32, i32* %5, align 4
  %27 = load i32, i32* %2, align 4
  %28 = sext i32 %27 to i64
  %29 = getelementptr inbounds [305 x i32], [305 x i32]* %3, i64 0, i64 %28
  %30 = load i32, i32* %29, align 4
  %31 = icmp slt i32 %26, %30
  br i1 %31, label %32, label %37

32:                                               ; preds = %25
  %33 = load i32, i32* %2, align 4
  %34 = sext i32 %33 to i64
  %35 = getelementptr inbounds [305 x i32], [305 x i32]* %3, i64 0, i64 %34
  %36 = load i32, i32* %35, align 4
  store i32 %36, i32* %5, align 4
  br label %37

37:                                               ; preds = %32, %25
  %38 = load i32, i32* %6, align 4
  %39 = load i32, i32* %2, align 4
  %40 = sext i32 %39 to i64
  %41 = getelementptr inbounds [305 x i32], [305 x i32]* %3, i64 0, i64 %40
  %42 = load i32, i32* %41, align 4
  %43 = icmp sgt i32 %38, %42
  br i1 %43, label %44, label %49

44:                                               ; preds = %37
  %45 = load i32, i32* %2, align 4
  %46 = sext i32 %45 to i64
  %47 = getelementptr inbounds [305 x i32], [305 x i32]* %3, i64 0, i64 %46
  %48 = load i32, i32* %47, align 4
  store i32 %48, i32* %6, align 4
  br label %49

49:                                               ; preds = %44, %37
  %50 = load i32, i32* %2, align 4
  %51 = sext i32 %50 to i64
  %52 = getelementptr inbounds [305 x i32], [305 x i32]* %3, i64 0, i64 %51
  %53 = load i32, i32* %52, align 4
  %54 = sitofp i32 %53 to double
  %55 = load double, double* %7, align 8
  %56 = fadd double %55, %54
  store double %56, double* %7, align 8
  br label %57

57:                                               ; preds = %49
  %58 = load i32, i32* %2, align 4
  %59 = add nsw i32 %58, 1
  store i32 %59, i32* %2, align 4
  br label %9

60:                                               ; preds = %9
  %61 = load i32, i32* %1, align 4
  %62 = sitofp i32 %61 to double
  %63 = load double, double* %7, align 8
  %64 = fdiv double %63, %62
  store double %64, double* %7, align 8
  %65 = load double, double* %7, align 8
  %66 = load i32, i32* %6, align 4
  %67 = sitofp i32 %66 to double
  %68 = fsub double %65, %67
  %69 = load i32, i32* %5, align 4
  %70 = sitofp i32 %69 to double
  %71 = load double, double* %7, align 8
  %72 = fsub double %70, %71
  %73 = fcmp ogt double %68, %72
  br i1 %73, label %74, label %77

74:                                               ; preds = %60
  %75 = load i32, i32* %6, align 4
  %76 = call i32 (i8*, ...) @printf(i8* getelementptr inbounds ([3 x i8], [3 x i8]* @.str, i64 0, i64 0), i32 %75)
  br label %95

77:                                               ; preds = %60
  %78 = load double, double* %7, align 8
  %79 = load i32, i32* %6, align 4
  %80 = sitofp i32 %79 to double
  %81 = fsub double %78, %80
  %82 = load i32, i32* %5, align 4
  %83 = sitofp i32 %82 to double
  %84 = load double, double* %7, align 8
  %85 = fsub double %83, %84
  %86 = fcmp olt double %81, %85
  br i1 %86, label %87, label %90

87:                                               ; preds = %77
  %88 = load i32, i32* %5, align 4
  %89 = call i32 (i8*, ...) @printf(i8* getelementptr inbounds ([3 x i8], [3 x i8]* @.str, i64 0, i64 0), i32 %88)
  br label %94

90:                                               ; preds = %77
  %91 = load i32, i32* %6, align 4
  %92 = load i32, i32* %5, align 4
  %93 = call i32 (i8*, ...) @printf(i8* getelementptr inbounds ([6 x i8], [6 x i8]* @.str.1, i64 0, i64 0), i32 %91, i32 %92)
  br label %94

94:                                               ; preds = %90, %87
  br label %95

95:                                               ; preds = %94, %74
  ret void
}

declare dso_local i32 @__isoc99_scanf(i8*, ...) #1

declare dso_local i32 @printf(i8*, ...) #1


!llvm.module.flags = !{!0}
!llvm.ident = !{!1}

!0 = !{i32 1, !"wchar_size", i32 4}
!1 = !{!"clang version 10.0.0-4ubuntu1 "}
